target datalayout = "e-m:e-p270:32:32-p271:32:32-p272:64:64-i64:64-i128:128-f80:128-n8:16:32:64-S128"
target triple = "x86_64-pc-linux-gnu"

%struct.bio_st = type { ptr, ptr, ptr, ptr, ptr, i32, i32, i32, i32, i32, ptr, ptr, ptr, %struct.CRYPTO_REF_COUNT, i64, i64, %struct.crypto_ex_data_st }
%struct.CRYPTO_REF_COUNT = type { i32 }
%struct.crypto_ex_data_st = type { ptr, ptr }
%struct.bio_linebuffer_ctx_struct = type { ptr, i32, i32 }

@.str.2 = private unnamed_addr constant [32 x i8] c"../openssl/crypto/bio/bf_lbuf.c\00", align 1

; Function Attrs: nounwind uwtable
define internal i32 @linebuffer_free(ptr noundef %0) #0 {
  %2 = alloca i32, align 4
  %3 = alloca ptr, align 8
  %4 = alloca ptr, align 8
  %5 = alloca i32, align 4
  store ptr %0, ptr %3, align 8, !tbaa !3
  call void @llvm.lifetime.start.p0(i64 8, ptr %4) #5
  %6 = load ptr, ptr %3, align 8, !tbaa !3
  %7 = icmp eq ptr %6, null
  br i1 %7, label %8, label %9

8:                                                ; preds = %1
  store i32 0, ptr %2, align 4
  store i32 1, ptr %5, align 4
  br label %25

9:                                                ; preds = %1
  %10 = load ptr, ptr %3, align 8, !tbaa !3
  %11 = getelementptr inbounds nuw %struct.bio_st, ptr %10, i32 0, i32 10
  %12 = load ptr, ptr %11, align 8, !tbaa !12
  store ptr %12, ptr %4, align 8, !tbaa !20
  %13 = load ptr, ptr %4, align 8, !tbaa !20
  %14 = getelementptr inbounds nuw %struct.bio_linebuffer_ctx_struct, ptr %13, i32 0, i32 0
  %15 = load ptr, ptr %14, align 8, !tbaa !29
  call void @CRYPTO_free(ptr noundef %15, ptr noundef @.str.2, i32 noundef 83)
  %16 = load ptr, ptr %3, align 8, !tbaa !3
  %17 = getelementptr inbounds nuw %struct.bio_st, ptr %16, i32 0, i32 10
  %18 = load ptr, ptr %17, align 8, !tbaa !12
  call void @CRYPTO_free(ptr noundef %18, ptr noundef @.str.2, i32 noundef 84)
  %19 = load ptr, ptr %3, align 8, !tbaa !3
  %20 = getelementptr inbounds nuw %struct.bio_st, ptr %19, i32 0, i32 10
  store ptr null, ptr %20, align 8, !tbaa !12
  %21 = load ptr, ptr %3, align 8, !tbaa !3
  %22 = getelementptr inbounds nuw %struct.bio_st, ptr %21, i32 0, i32 5
  store i32 0, ptr %22, align 8, !tbaa !34
  %23 = load ptr, ptr %3, align 8, !tbaa !3
  %24 = getelementptr inbounds nuw %struct.bio_st, ptr %23, i32 0, i32 7
  store i32 0, ptr %24, align 8, !tbaa !35
  store i32 1, ptr %2, align 4
  store i32 1, ptr %5, align 4
  br label %25

25:                                               ; preds = %9, %8
  call void @llvm.lifetime.end.p0(i64 8, ptr %4) #5
  %26 = load i32, ptr %2, align 4
  ret i32 %26
}